; Function Attrs: mustprogress uwtable
define hidden noundef zeroext i1 @_ZN8external6detail5checkEP7_object(ptr nocapture noundef readonly %0) local_unnamed_addr #1 {
  %2 = getelementptr i8, ptr %0, i64 8
  %.val = load ptr, ptr %2, align 8
  %.not.i = icmp eq ptr %.val, @PyFloat_Type
  br i1 %.not.i, label %_ZL19_PyObject_TypeCheckP7_objectP11_typeobject.exit, label %3

3:                                                ; preds = %1
  %4 = tail call i32 @PyType_IsSubtype(ptr noundef %.val, ptr noundef nonnull @PyFloat_Type)
  %5 = icmp ne i32 %4, 0
  br label %_ZL19_PyObject_TypeCheckP7_objectP11_typeobject.exit

_ZL19_PyObject_TypeCheckP7_objectP11_typeobject.exit: ; preds = %1, %3
  %6 = phi i1 [ true, %1 ], [ %5, %3 ]
  ret i1 %6
}